target datalayout = "e-m:e-p270:32:32-p271:32:32-p272:64:64-i64:64-i128:128-f80:128-n8:16:32:64-S128"
target triple = "x86_64-pc-linux-gnu"

%struct.Vec_Str_t_ = type { i32, i32, ptr }
%struct.Vec_Int_t_ = type { i32, i32, ptr }
%struct.Acb_Ntk_t_ = type { ptr, i32, i32, i32, i8, %struct.Vec_Int_t_, %struct.Vec_Int_t_, %struct.Vec_Int_t_, %struct.Vec_Int_t_, i32, i32, i32, i32, i32, %struct.Vec_Str_t_, %struct.Vec_Int_t_, %struct.Vec_Int_t_, %struct.Vec_Int_t_, %struct.Vec_Int_t_, %struct.Vec_Int_t_, %struct.Vec_Wrd_t_, %struct.Vec_Int_t_, %struct.Vec_Int_t_, %struct.Vec_Int_t_, %struct.Vec_Int_t_, %struct.Vec_Int_t_, %struct.Vec_Int_t_, %struct.Vec_Int_t_, %struct.Vec_Int_t_, %struct.Vec_Int_t_, %struct.Vec_Int_t_, %struct.Vec_Int_t_, %struct.Vec_Int_t_, %struct.Vec_Flt_t_, %struct.Vec_Wec_t_, %struct.Vec_Wec_t_, %struct.Vec_Str_t_, %struct.Vec_Int_t_, ptr, %struct.Vec_Int_t_, %struct.Vec_Int_t_, %struct.Vec_Int_t_, %struct.Vec_Int_t_ }
%struct.Vec_Wrd_t_ = type { i32, i32, ptr }
%struct.Vec_Flt_t_ = type { i32, i32, ptr }
%struct.Vec_Wec_t_ = type { i32, i32, ptr }

@.str.27 = private unnamed_addr constant [2 x i8] c"\0A\00", align 1
@.str.136 = private unnamed_addr constant [6 x i8] c"out.v\00", align 1
@.str.139 = private unnamed_addr constant [33 x i8] c"Permuting targets as follows:   \00", align 1
@.str.140 = private unnamed_addr constant [30 x i8] c"Computation did not succeed.\0A\00", align 1
@.str.141 = private unnamed_addr constant [93 x i8] c"read %s; strash; write temp1.aig; read %s; strash; write temp2.aig; &cec temp1.aig temp2.aig\00", align 1
@stdout = external global ptr, align 8
@.str.142 = private unnamed_addr constant [30 x i8] c"Cannot execute command \22%s\22.\0A\00", align 1
@.str.165 = private unnamed_addr constant [25 x i8] c"Vector has %d entries: {\00", align 1
@.str.166 = private unnamed_addr constant [4 x i8] c" %d\00", align 1
@.str.167 = private unnamed_addr constant [4 x i8] c" }\0A\00", align 1

; Function Attrs: nounwind uwtable
define internal i32 @Vec_IntEntry(ptr noundef %0, i32 noundef %1) #0 {
  %3 = alloca ptr, align 8
  %4 = alloca i32, align 4
  store ptr %0, ptr %3, align 8
  store i32 %1, ptr %4, align 4
  %5 = load ptr, ptr %3, align 8
  %6 = getelementptr inbounds %struct.Vec_Int_t_, ptr %5, i32 0, i32 2
  %7 = load ptr, ptr %6, align 8
  %8 = load i32, ptr %4, align 4
  %9 = sext i32 %8 to i64
  %10 = getelementptr inbounds i32, ptr %7, i64 %9
  %11 = load i32, ptr %10, align 4
  ret i32 %11
}

; Function Attrs: nounwind uwtable
define internal ptr @Vec_IntArray(ptr noundef %0) #0 {
  %2 = alloca ptr, align 8
  store ptr %0, ptr %2, align 8
  %3 = load ptr, ptr %2, align 8
  %4 = getelementptr inbounds %struct.Vec_Int_t_, ptr %3, i32 0, i32 2
  %5 = load ptr, ptr %4, align 8
  ret ptr %5
}

; Function Attrs: nounwind uwtable
define internal i32 @Vec_IntSize(ptr noundef %0) #0 {
  %2 = alloca ptr, align 8
  store ptr %0, ptr %2, align 8
  %3 = load ptr, ptr %2, align 8
  %4 = getelementptr inbounds %struct.Vec_Int_t_, ptr %3, i32 0, i32 1
  %5 = load i32, ptr %4, align 4
  ret i32 %5
}

; Function Attrs: nounwind uwtable
define internal void @Vec_IntPrint(ptr noundef %0) #0 {
  %2 = alloca ptr, align 8
  %3 = alloca i32, align 4
  %4 = alloca i32, align 4
  store ptr %0, ptr %2, align 8
  %5 = load ptr, ptr %2, align 8
  %6 = call i32 @Vec_IntSize(ptr noundef %5)
  %7 = call i32 (ptr, ...) @printf(ptr noundef @.str.165, i32 noundef %6)
  store i32 0, ptr %3, align 4
  br label %8

8:                                                ; preds = %22, %1
  %9 = load i32, ptr %3, align 4
  %10 = load ptr, ptr %2, align 8
  %11 = call i32 @Vec_IntSize(ptr noundef %10)
  %12 = icmp slt i32 %9, %11
  br i1 %12, label %13, label %17

13:                                               ; preds = %8
  %14 = load ptr, ptr %2, align 8
  %15 = load i32, ptr %3, align 4
  %16 = call i32 @Vec_IntEntry(ptr noundef %14, i32 noundef %15)
  store i32 %16, ptr %4, align 4
  br label %17

17:                                               ; preds = %13, %8
  %18 = phi i1 [ false, %8 ], [ true, %13 ]
  br i1 %18, label %19, label %25

19:                                               ; preds = %17
  %20 = load i32, ptr %4, align 4
  %21 = call i32 (ptr, ...) @printf(ptr noundef @.str.166, i32 noundef %20)
  br label %22

22:                                               ; preds = %19
  %23 = load i32, ptr %3, align 4
  %24 = add nsw i32 %23, 1
  store i32 %24, ptr %3, align 4
  br label %8, !llvm.loop !213

25:                                               ; preds = %17
  %26 = call i32 (ptr, ...) @printf(ptr noundef @.str.167)
  ret void
}

; Function Attrs: nounwind uwtable
define void @Vec_IntPermute(ptr noundef %0) #0 {
  %2 = alloca ptr, align 8
  %3 = alloca i32, align 4
  %4 = alloca i32, align 4
  %5 = alloca ptr, align 8
  %6 = alloca i32, align 4
  %7 = alloca i32, align 4
  store ptr %0, ptr %2, align 8
  %8 = load ptr, ptr %2, align 8
  %9 = call i32 @Vec_IntSize(ptr noundef %8)
  store i32 %9, ptr %4, align 4
  %10 = load ptr, ptr %2, align 8
  %11 = call ptr @Vec_IntArray(ptr noundef %10)
  store ptr %11, ptr %5, align 8
  %12 = call i64 @time(ptr noundef null) #13
  %13 = trunc i64 %12 to i32
  call void @srand(i32 noundef %13) #13
  store i32 0, ptr %3, align 4
  br label %14

14:                                               ; preds = %41, %1
  %15 = load i32, ptr %3, align 4
  %16 = load i32, ptr %4, align 4
  %17 = icmp slt i32 %15, %16
  br i1 %17, label %18, label %44

18:                                               ; preds = %14
  %19 = call i32 @rand() #13
  %20 = load i32, ptr %4, align 4
  %21 = srem i32 %19, %20
  store i32 %21, ptr %6, align 4
  %22 = load ptr, ptr %5, align 8
  %23 = load i32, ptr %3, align 4
  %24 = sext i32 %23 to i64
  %25 = getelementptr inbounds i32, ptr %22, i64 %24
  %26 = load i32, ptr %25, align 4
  store i32 %26, ptr %7, align 4
  %27 = load ptr, ptr %5, align 8
  %28 = load i32, ptr %6, align 4
  %29 = sext i32 %28 to i64
  %30 = getelementptr inbounds i32, ptr %27, i64 %29
  %31 = load i32, ptr %30, align 4
  %32 = load ptr, ptr %5, align 8
  %33 = load i32, ptr %3, align 4
  %34 = sext i32 %33 to i64
  %35 = getelementptr inbounds i32, ptr %32, i64 %34
  store i32 %31, ptr %35, align 4
  %36 = load i32, ptr %7, align 4
  %37 = load ptr, ptr %5, align 8
  %38 = load i32, ptr %6, align 4
  %39 = sext i32 %38 to i64
  %40 = getelementptr inbounds i32, ptr %37, i64 %39
  store i32 %36, ptr %40, align 4
  br label %41

41:                                               ; preds = %18
  %42 = load i32, ptr %3, align 4
  %43 = add nsw i32 %42, 1
  store i32 %43, ptr %3, align 4
  br label %14, !llvm.loop !82

44:                                               ; preds = %14
  ret void
}

; Function Attrs: nounwind uwtable
define void @Acb_NtkRunEco(ptr noundef %0, i32 noundef %1, i32 noundef %2, i32 noundef %3, i32 noundef %4, i32 noundef %5, i32 noundef %6, i32 noundef %7) #0 {
  %9 = alloca ptr, align 8
  %10 = alloca i32, align 4
  %11 = alloca i32, align 4
  %12 = alloca i32, align 4
  %13 = alloca i32, align 4
  %14 = alloca i32, align 4
  %15 = alloca i32, align 4
  %16 = alloca i32, align 4
  %17 = alloca [1000 x i8], align 16
  %18 = alloca i32, align 4
  %19 = alloca ptr, align 8
  %20 = alloca ptr, align 8
  store ptr %0, ptr %9, align 8
  store i32 %1, ptr %10, align 4
  store i32 %2, ptr %11, align 4
  store i32 %3, ptr %12, align 4
  store i32 %4, ptr %13, align 4
  store i32 %5, ptr %14, align 4
  store i32 %6, ptr %15, align 4
  store i32 %7, ptr %16, align 4
  store i32 1, ptr %18, align 4
  %21 = load ptr, ptr %9, align 8
  %22 = getelementptr inbounds ptr, ptr %21, i64 0
  %23 = load ptr, ptr %22, align 8
  %24 = load ptr, ptr %9, align 8
  %25 = getelementptr inbounds ptr, ptr %24, i64 2
  %26 = load ptr, ptr %25, align 8
  %27 = call ptr @Acb_VerilogSimpleRead(ptr noundef %23, ptr noundef %26)
  store ptr %27, ptr %19, align 8
  %28 = load ptr, ptr %9, align 8
  %29 = getelementptr inbounds ptr, ptr %28, i64 1
  %30 = load ptr, ptr %29, align 8
  %31 = call ptr @Acb_VerilogSimpleRead(ptr noundef %30, ptr noundef null)
  store ptr %31, ptr %20, align 8
  %32 = load ptr, ptr %19, align 8
  %33 = icmp ne ptr %32, null
  br i1 %33, label %34, label %37

34:                                               ; preds = %8
  %35 = load ptr, ptr %20, align 8
  %36 = icmp ne ptr %35, null
  br i1 %36, label %38, label %37

37:                                               ; preds = %34, %8
  br label %100

38:                                               ; preds = %34
  %39 = load i32, ptr %12, align 4
  %40 = icmp ne i32 %39, 0
  br i1 %40, label %41, label %47

41:                                               ; preds = %38
  %42 = call i32 (ptr, ...) @printf(ptr noundef @.str.139)
  %43 = load ptr, ptr %19, align 8
  %44 = getelementptr inbounds %struct.Acb_Ntk_t_, ptr %43, i32 0, i32 28
  call void @Vec_IntPermute(ptr noundef %44)
  %45 = load ptr, ptr %19, align 8
  %46 = getelementptr inbounds %struct.Acb_Ntk_t_, ptr %45, i32 0, i32 28
  call void @Vec_IntPrint(ptr noundef %46)
  br label %47

47:                                               ; preds = %41, %38
  %48 = call ptr (...) @Abc_FrameReadSignalNames()
  %49 = icmp ne ptr %48, null
  %50 = zext i1 %49 to i32
  call void @Acb_IntallLibrary(i32 noundef %50)
  %51 = load ptr, ptr %19, align 8
  %52 = load ptr, ptr %20, align 8
  %53 = load ptr, ptr %9, align 8
  %54 = load i32, ptr %10, align 4
  %55 = load i32, ptr %13, align 4
  %56 = load i32, ptr %11, align 4
  %57 = load i32, ptr %14, align 4
  %58 = load i32, ptr %15, align 4
  %59 = load i32, ptr %16, align 4
  %60 = call i32 @Acb_NtkEcoPerform(ptr noundef %51, ptr noundef %52, ptr noundef %53, i32 noundef %54, i32 noundef 0, i32 noundef %55, i32 noundef %56, i32 noundef %57, i32 noundef %58, i32 noundef %59)
  %61 = icmp ne i32 %60, 0
  br i1 %61, label %64, label %62

62:                                               ; preds = %47
  %63 = call i32 (ptr, ...) @printf(ptr noundef @.str.140)
  store i32 0, ptr %18, align 4
  br label %64

64:                                               ; preds = %62, %47
  %65 = load ptr, ptr %19, align 8
  %66 = getelementptr inbounds %struct.Acb_Ntk_t_, ptr %65, i32 0, i32 0
  %67 = load ptr, ptr %66, align 8
  call void @Acb_ManFree(ptr noundef %67)
  %68 = load ptr, ptr %20, align 8
  %69 = getelementptr inbounds %struct.Acb_Ntk_t_, ptr %68, i32 0, i32 0
  %70 = load ptr, ptr %69, align 8
  call void @Acb_ManFree(ptr noundef %70)
  %71 = getelementptr inbounds [1000 x i8], ptr %17, i64 0, i64 0
  %72 = load ptr, ptr %9, align 8
  %73 = getelementptr inbounds ptr, ptr %72, i64 1
  %74 = load ptr, ptr %73, align 8
  %75 = load ptr, ptr %9, align 8
  %76 = getelementptr inbounds ptr, ptr %75, i64 3
  %77 = load ptr, ptr %76, align 8
  %78 = icmp ne ptr %77, null
  br i1 %78, label %79, label %83

79:                                               ; preds = %64
  %80 = load ptr, ptr %9, align 8
  %81 = getelementptr inbounds ptr, ptr %80, i64 3
  %82 = load ptr, ptr %81, align 8
  br label %84

83:                                               ; preds = %64
  br label %84

84:                                               ; preds = %83, %79
  %85 = phi ptr [ %82, %79 ], [ @.str.136, %83 ]
  %86 = call i32 (ptr, ptr, ...) @sprintf(ptr noundef %71, ptr noundef @.str.141, ptr noundef %74, ptr noundef %85) #13
  %87 = load i32, ptr %18, align 4
  %88 = icmp ne i32 %87, 0
  br i1 %88, label %89, label %98

89:                                               ; preds = %84
  %90 = call ptr (...) @Abc_FrameGetGlobalFrame()
  %91 = getelementptr inbounds [1000 x i8], ptr %17, i64 0, i64 0
  %92 = call i32 @Cmd_CommandExecute(ptr noundef %90, ptr noundef %91)
  %93 = icmp ne i32 %92, 0
  br i1 %93, label %94, label %98

94:                                               ; preds = %89
  %95 = load ptr, ptr @stdout, align 8
  %96 = getelementptr inbounds [1000 x i8], ptr %17, i64 0, i64 0
  %97 = call i32 (ptr, ptr, ...) @fprintf(ptr noundef %95, ptr noundef @.str.142, ptr noundef %96) #13
  br label %98

98:                                               ; preds = %94, %89, %84
  %99 = call i32 (ptr, ...) @printf(ptr noundef @.str.27)
  br label %100

100:                                              ; preds = %98, %37
  ret void
}