; Function Attrs: nounwind uwtable
define void @Acb_NtkRunEco(ptr noundef readonly captures(none) %0, i32 noundef %1, i32 noundef %2, i32 noundef %3, i32 noundef %4, i32 noundef %5, i32 noundef %6, i32 noundef %7) local_unnamed_addr #0 {
  %9 = alloca [1000 x i8], align 16
  %10 = load ptr, ptr %0, align 8
  %11 = getelementptr inbounds nuw i8, ptr %0, i64 16
  %12 = load ptr, ptr %11, align 8
  %13 = tail call ptr @Acb_VerilogSimpleRead(ptr noundef %10, ptr noundef %12)
  %14 = getelementptr inbounds nuw i8, ptr %0, i64 8
  %15 = load ptr, ptr %14, align 8
  %16 = tail call ptr @Acb_VerilogSimpleRead(ptr noundef %15, ptr noundef null)
  %17 = icmp ne ptr %13, null
  %18 = icmp ne ptr %16, null
  %or.cond = select i1 %17, i1 %18, i1 false
  br i1 %or.cond, label %19, label %65

19:                                               ; preds = %8
  %.not = icmp eq i32 %3, 0
  br i1 %.not, label %41, label %20

20:                                               ; preds = %19
  %21 = tail call i32 (ptr, ...) @printf(ptr noundef nonnull dereferenceable(1) @.str.139)
  %22 = getelementptr i8, ptr %13, i64 340
  %.val.i = load i32, ptr %22, align 4
  %23 = getelementptr i8, ptr %13, i64 344
  %.val15.i = load ptr, ptr %23, align 8
  %24 = tail call i64 @time(ptr noundef null) #31
  %25 = trunc i64 %24 to i32
  tail call void @srand(i32 noundef %25) #31
  %26 = icmp sgt i32 %.val.i, 0
  br i1 %26, label %.lr.ph.preheader.i, label %Vec_IntPermute.exit

.lr.ph.preheader.i:                               ; preds = %20
  %wide.trip.count.i = zext nneg i32 %.val.i to i64
  br label %.lr.ph.i

.lr.ph.i:                                         ; preds = %.lr.ph.i, %.lr.ph.preheader.i
  %indvars.iv.i = phi i64 [ 0, %.lr.ph.preheader.i ], [ %indvars.iv.next.i, %.lr.ph.i ]
  %27 = tail call i32 @rand() #31
  %28 = srem i32 %27, %.val.i
  %29 = getelementptr inbounds nuw i32, ptr %.val15.i, i64 %indvars.iv.i
  %30 = load i32, ptr %29, align 4
  %31 = sext i32 %28 to i64
  %32 = getelementptr inbounds i32, ptr %.val15.i, i64 %31
  %33 = load i32, ptr %32, align 4
  store i32 %33, ptr %29, align 4
  store i32 %30, ptr %32, align 4
  %indvars.iv.next.i = add nuw nsw i64 %indvars.iv.i, 1
  %exitcond.not.i = icmp eq i64 %indvars.iv.next.i, %wide.trip.count.i
  br i1 %exitcond.not.i, label %Vec_IntPermute.exit, label %.lr.ph.i, !llvm.loop !81

Vec_IntPermute.exit:                              ; preds = %.lr.ph.i, %20
  %.val6.i = load i32, ptr %22, align 4
  %34 = tail call i32 (ptr, ...) @printf(ptr noundef nonnull dereferenceable(1) @.str.165, i32 noundef %.val6.i)
  %.val8.i = load i32, ptr %22, align 4
  %35 = icmp sgt i32 %.val8.i, 0
  br i1 %35, label %.lr.ph.i30, label %Vec_IntPrint.exit

.lr.ph.i30:                                       ; preds = %Vec_IntPermute.exit, %.lr.ph.i30
  %indvars.iv.i31 = phi i64 [ %indvars.iv.next.i32, %.lr.ph.i30 ], [ 0, %Vec_IntPermute.exit ]
  %.val7.i = load ptr, ptr %23, align 8
  %36 = getelementptr inbounds nuw i32, ptr %.val7.i, i64 %indvars.iv.i31
  %37 = load i32, ptr %36, align 4
  %38 = tail call i32 (ptr, ...) @printf(ptr noundef nonnull dereferenceable(1) @.str.166, i32 noundef %37)
  %indvars.iv.next.i32 = add nuw nsw i64 %indvars.iv.i31, 1
  %.val.i33 = load i32, ptr %22, align 4
  %39 = sext i32 %.val.i33 to i64
  %40 = icmp slt i64 %indvars.iv.next.i32, %39
  br i1 %40, label %.lr.ph.i30, label %Vec_IntPrint.exit, !llvm.loop !200

Vec_IntPrint.exit:                                ; preds = %.lr.ph.i30, %Vec_IntPermute.exit
  %puts.i = tail call i32 @puts(ptr nonnull dereferenceable(1) @str.7)
  br label %41

41:                                               ; preds = %Vec_IntPrint.exit, %19
  %42 = tail call ptr (...) @Abc_FrameReadSignalNames() #31
  %43 = icmp ne ptr %42, null
  %44 = zext i1 %43 to i32
  tail call void @Acb_IntallLibrary(i32 noundef %44)
  %45 = tail call i32 @Acb_NtkEcoPerform(ptr noundef nonnull %13, ptr noundef nonnull %16, ptr noundef nonnull %0, i32 noundef %1, i32 noundef 0, i32 noundef %4, i32 noundef %2, i32 noundef %5, i32 noundef %6, i32 noundef %7)
  %.not26 = icmp eq i32 %45, 0
  br i1 %.not26, label %46, label %.critedge

46:                                               ; preds = %41
  %puts = tail call i32 @puts(ptr nonnull dereferenceable(1) @str.6)
  %47 = load ptr, ptr %13, align 8
  tail call fastcc void @Acb_ManFree(ptr noundef %47)
  %48 = load ptr, ptr %16, align 8
  tail call fastcc void @Acb_ManFree(ptr noundef %48)
  %49 = load ptr, ptr %14, align 8
  %50 = getelementptr inbounds nuw i8, ptr %0, i64 24
  %51 = load ptr, ptr %50, align 8
  %.not27 = icmp eq ptr %51, null
  %spec.select = select i1 %.not27, ptr @.str.136, ptr %51
  %52 = call i32 (ptr, ptr, ...) @sprintf(ptr noundef nonnull dereferenceable(1) %9, ptr noundef nonnull dereferenceable(1) @.str.141, ptr noundef %49, ptr noundef nonnull %spec.select) #31
  br label %64

.critedge:                                        ; preds = %41
  %53 = load ptr, ptr %13, align 8
  tail call fastcc void @Acb_ManFree(ptr noundef %53)
  %54 = load ptr, ptr %16, align 8
  tail call fastcc void @Acb_ManFree(ptr noundef %54)
  %55 = load ptr, ptr %14, align 8
  %56 = getelementptr inbounds nuw i8, ptr %0, i64 24
  %57 = load ptr, ptr %56, align 8
  %.not27.c = icmp eq ptr %57, null
  %spec.select.c = select i1 %.not27.c, ptr @.str.136, ptr %57
  %58 = call i32 (ptr, ptr, ...) @sprintf(ptr noundef nonnull dereferenceable(1) %9, ptr noundef nonnull dereferenceable(1) @.str.141, ptr noundef %55, ptr noundef nonnull %spec.select.c) #31
  %59 = tail call ptr (...) @Abc_FrameGetGlobalFrame() #31
  %60 = call i32 @Cmd_CommandExecute(ptr noundef %59, ptr noundef nonnull %9) #31
  %.not29 = icmp eq i32 %60, 0
  br i1 %.not29, label %64, label %61

61:                                               ; preds = %.critedge
  %62 = load ptr, ptr @stdout, align 8
  %63 = call i32 (ptr, ptr, ...) @fprintf(ptr noundef %62, ptr noundef nonnull @.str.142, ptr noundef nonnull %9) #31
  br label %64

64:                                               ; preds = %46, %61, %.critedge
  %putchar = call i32 @putchar(i32 10)
  br label %65

65:                                               ; preds = %8, %64
  ret void
}